; Function Attrs: mustprogress nounwind uwtable
define hidden void @_ZN19OpenColorIO_v2_4dev20GradingPrimaryOpData8setStyleENS_12GradingStyleE(ptr nocapture noundef nonnull align 8 dereferenceable(192) %this, i32 noundef %style) local_unnamed_addr #4 align 2 personality ptr @__gxx_personality_v0 {
entry:
  %m_style = getelementptr inbounds i8, ptr %this, i64 168
  %0 = load i32, ptr %m_style, align 8
  %cmp.not = icmp eq i32 %0, %style
  br i1 %cmp.not, label %if.end, label %if.then

if.then:                                          ; preds = %entry
  store i32 %style, ptr %m_style, align 8
  %m_value = getelementptr inbounds i8, ptr %this, i64 176
  %1 = load ptr, ptr %m_value, align 8
  invoke void @_ZN19OpenColorIO_v2_4dev33DynamicPropertyGradingPrimaryImpl8setStyleENS_12GradingStyleE(ptr noundef nonnull align 8 dereferenceable(392) %1, i32 noundef %style)
          to label %if.end unwind label %terminate.lpad

if.end:                                           ; preds = %if.then, %entry
  ret void

terminate.lpad:                                   ; preds = %if.then
  %2 = landingpad { ptr, i32 }
          catch ptr null
  %3 = extractvalue { ptr, i32 } %2, 0
  tail call void @__clang_call_terminate(ptr %3) #20
  unreachable
}